; Function Attrs: nounwind uwtable
define void @lv_draw_buf_destroy(ptr noundef %0) local_unnamed_addr #0 {
  %.not = icmp eq ptr %0, null
  br i1 %.not, label %.preheader, label %2

.preheader:                                       ; preds = %1, %.preheader
  br label %.preheader

2:                                                ; preds = %1
  %3 = load i64, ptr %0, align 8
  %4 = and i64 %3, 1048576
  %.not9 = icmp eq i64 %4, 0
  br i1 %.not9, label %13, label %5

5:                                                ; preds = %2
  %6 = getelementptr inbounds nuw i8, ptr %0, i64 32
  %7 = load ptr, ptr %6, align 8, !tbaa !13
  %.not10 = icmp eq ptr %7, null
  br i1 %.not10, label %.preheader11, label %8

.preheader11:                                     ; preds = %5, %.preheader11
  br label %.preheader11

8:                                                ; preds = %5
  %9 = getelementptr i8, ptr %7, i64 8
  %.val = load ptr, ptr %9, align 8, !tbaa !8
  %.not.i = icmp eq ptr %.val, null
  br i1 %.not.i, label %draw_buf_free.exit, label %10

10:                                               ; preds = %8
  %11 = getelementptr inbounds nuw i8, ptr %0, i64 24
  %12 = load ptr, ptr %11, align 8, !tbaa !28
  tail call void %.val(ptr noundef %12) #9
  br label %draw_buf_free.exit

draw_buf_free.exit:                               ; preds = %8, %10
  tail call void @lv_free(ptr noundef nonnull %0) #9
  br label %13

13:                                               ; preds = %2, %draw_buf_free.exit
  ret void
}